(lp0
(S'cppflags'
p1
ccopy_reg
_reconstructor
p2
(cino.utils
SpaceList
p3
c__builtin__
list
p4
(lp5
S'-mmcu=atmega328p'
p6
aS'-DF_CPU=16000000L'
p7
aS'-DARDUINO=105'
p8
aS'-I/Applications/Arduino.app/Contents/Resources/Java/hardware/arduino/cores/arduino'
p9
aS'-ffunction-sections'
p10
aS'-fdata-sections'
p11
aS'-g'
p12
aS'-Os'
p13
aS'-w'
p14
aS'-I/Applications/Arduino.app/Contents/Resources/Java/hardware/arduino/variants/standard'
p15
atp16
Rp17
tp18
a(S'cxx'
p19
S'/Applications/Arduino.app/Contents/Resources/Java/hardware/tools/avr/bin/avr-g++'
p20
tp21
a(S'version.txt'
p22
S'/Applications/Arduino.app/Contents/Resources/Java/lib/version.txt'
p23
tp24
a(S'cc'
p25
S'/Applications/Arduino.app/Contents/Resources/Java/hardware/tools/avr/bin/avr-gcc'
p26
tp27
a(S'make'
p28
S'/Applications/Arduino.app/Contents/Resources/Java/hardware/tools/avr/bin/make'
p29
tp30
a(S'cflags'
p31
g2
(g3
g4
(lp32
tp33
Rp34
tp35
a(S'build_dir'
p36
S'.build/uno'
p37
tp38
a(S'arduino_core_dir'
p39
S'/Applications/Arduino.app/Contents/Resources/Java/hardware/arduino/cores/arduino'
p40
tp41
a(S'boards.txt'
p42
S'/Applications/Arduino.app/Contents/Resources/Java/hardware/arduino/boards.txt'
p43
tp44
a(S'cxxflags'
p45
g2
(g3
g4
(lp46
S'-fno-exceptions'
p47
atp48
Rp49
tp50
a(S'arduino_variants_dir'
p51
S'/Applications/Arduino.app/Contents/Resources/Java/hardware/arduino/variants'
p52
tp53
a(S'ar'
p54
S'/Applications/Arduino.app/Contents/Resources/Java/hardware/tools/avr/bin/avr-ar'
p55
tp56
a(S'names'
p57
(dp58
S'cpp'
p59
S'%s.cpp'
p60
sS'obj'
p61
S'%s.o'
p62
sS'deps'
p63
S'%s.d'
p64
sS'lib'
p65
S'lib%s.a'
p66
stp67
a(S'deps'
p68
g2
(g3
g4
(lp69
tp70
Rp71
tp72
a(S'arduino_libraries_dir'
p73
S'/Applications/Arduino.app/Contents/Resources/Java/libraries'
p74
tp75
a(S'arduino_lib_version'
p76
g2
(cino.environment
Version
p77
c__builtin__
tuple
p78
(I1
I0
I5
tp79
tp80
Rp81
tp82
a(S'objcopy'
p83
S'/Applications/Arduino.app/Contents/Resources/Java/hardware/tools/avr/bin/avr-objcopy'
p84
tp85
a(S'board_models'
p86
cino.environment
BoardModels
p87
((lp88
(lp89
S'uno'
p90
a(dp91
S'bootloader'
p92
(dp93
S'extended_fuses'
p94
S'0x05'
p95
sS'high_fuses'
p96
S'0xde'
p97
sS'low_fuses'
p98
S'0xff'
p99
sS'lock_bits'
p100
S'0x0F'
p101
sS'file'
p102
S'optiboot_atmega328.hex'
p103
sS'path'
p104
S'optiboot'
p105
sS'unlock_bits'
p106
S'0x3F'
p107
ssS'upload'
p108
(dp109
S'protocol'
p110
S'arduino'
p111
sS'maximum_size'
p112
S'32256'
p113
sS'speed'
p114
S'115200'
p115
ssS'build'
p116
(dp117
S'core'
p118
S'arduino'
p119
sS'mcu'
p120
S'atmega328p'
p121
sS'f_cpu'
p122
S'16000000L'
p123
sS'variant'
p124
S'standard'
p125
ssS'name'
p126
S'Arduino Uno'
p127
saa(lp128
S'atmega328'
p129
a(dp130
S'bootloader'
p131
(dp132
S'extended_fuses'
p133
S'0x05'
p134
sS'high_fuses'
p135
S'0xDA'
p136
sS'low_fuses'
p137
S'0xFF'
p138
sS'lock_bits'
p139
S'0x0F'
p140
sS'file'
p141
S'ATmegaBOOT_168_atmega328.hex'
p142
sS'path'
p143
S'atmega'
p144
sS'unlock_bits'
p145
S'0x3F'
p146
ssS'upload'
p147
(dp148
S'protocol'
p149
S'arduino'
p150
sS'maximum_size'
p151
S'30720'
p152
sS'speed'
p153
S'57600'
p154
ssS'build'
p155
(dp156
S'core'
p157
S'arduino'
p158
sS'mcu'
p159
S'atmega328p'
p160
sS'f_cpu'
p161
S'16000000L'
p162
sS'variant'
p163
S'standard'
p164
ssS'name'
p165
S'Arduino Duemilanove w/ ATmega328'
p166
saa(lp167
S'diecimila'
p168
a(dp169
S'bootloader'
p170
(dp171
S'extended_fuses'
p172
S'0x00'
p173
sS'high_fuses'
p174
S'0xdd'
p175
sS'low_fuses'
p176
S'0xff'
p177
sS'lock_bits'
p178
S'0x0F'
p179
sS'file'
p180
S'ATmegaBOOT_168_diecimila.hex'
p181
sS'path'
p182
S'atmega'
p183
sS'unlock_bits'
p184
S'0x3F'
p185
ssS'upload'
p186
(dp187
S'protocol'
p188
S'arduino'
p189
sS'maximum_size'
p190
S'14336'
p191
sS'speed'
p192
S'19200'
p193
ssS'build'
p194
(dp195
S'core'
p196
S'arduino'
p197
sS'mcu'
p198
S'atmega168'
p199
sS'f_cpu'
p200
S'16000000L'
p201
sS'variant'
p202
S'standard'
p203
ssS'name'
p204
S'Arduino Diecimila or Duemilanove w/ ATmega168'
p205
saa(lp206
S'nano328'
p207
a(dp208
S'bootloader'
p209
(dp210
S'extended_fuses'
p211
S'0x05'
p212
sS'high_fuses'
p213
S'0xDA'
p214
sS'low_fuses'
p215
S'0xFF'
p216
sS'lock_bits'
p217
S'0x0F'
p218
sS'file'
p219
S'ATmegaBOOT_168_atmega328.hex'
p220
sS'path'
p221
S'atmega'
p222
sS'unlock_bits'
p223
S'0x3F'
p224
ssS'upload'
p225
(dp226
S'protocol'
p227
S'arduino'
p228
sS'maximum_size'
p229
S'30720'
p230
sS'speed'
p231
S'57600'
p232
ssS'build'
p233
(dp234
S'core'
p235
S'arduino'
p236
sS'mcu'
p237
S'atmega328p'
p238
sS'f_cpu'
p239
S'16000000L'
p240
sS'variant'
p241
S'eightanaloginputs'
p242
ssS'name'
p243
S'Arduino Nano w/ ATmega328'
p244
saa(lp245
S'nano'
p246
a(dp247
S'bootloader'
p248
(dp249
S'extended_fuses'
p250
S'0x00'
p251
sS'high_fuses'
p252
S'0xdd'
p253
sS'low_fuses'
p254
S'0xff'
p255
sS'lock_bits'
p256
S'0x0F'
p257
sS'file'
p258
S'ATmegaBOOT_168_diecimila.hex'
p259
sS'path'
p260
S'atmega'
p261
sS'unlock_bits'
p262
S'0x3F'
p263
ssS'upload'
p264
(dp265
S'protocol'
p266
S'arduino'
p267
sS'maximum_size'
p268
S'14336'
p269
sS'speed'
p270
S'19200'
p271
ssS'build'
p272
(dp273
S'core'
p274
S'arduino'
p275
sS'mcu'
p276
S'atmega168'
p277
sS'f_cpu'
p278
S'16000000L'
p279
sS'variant'
p280
S'eightanaloginputs'
p281
ssS'name'
p282
S'Arduino Nano w/ ATmega168'
p283
saa(lp284
S'mega2560'
p285
a(dp286
S'bootloader'
p287
(dp288
S'extended_fuses'
p289
S'0xFD'
p290
sS'high_fuses'
p291
S'0xD8'
p292
sS'low_fuses'
p293
S'0xFF'
p294
sS'lock_bits'
p295
S'0x0F'
p296
sS'file'
p297
S'stk500boot_v2_mega2560.hex'
p298
sS'path'
p299
S'stk500v2'
p300
sS'unlock_bits'
p301
S'0x3F'
p302
ssS'upload'
p303
(dp304
S'protocol'
p305
S'wiring'
p306
sS'maximum_size'
p307
S'258048'
p308
sS'speed'
p309
S'115200'
p310
ssS'build'
p311
(dp312
S'core'
p313
S'arduino'
p314
sS'mcu'
p315
S'atmega2560'
p316
sS'f_cpu'
p317
S'16000000L'
p318
sS'variant'
p319
S'mega'
p320
ssS'name'
p321
S'Arduino Mega 2560 or Mega ADK'
p322
saa(lp323
S'mega'
p324
a(dp325
S'bootloader'
p326
(dp327
S'extended_fuses'
p328
S'0xF5'
p329
sS'high_fuses'
p330
S'0xDA'
p331
sS'low_fuses'
p332
S'0xFF'
p333
sS'lock_bits'
p334
S'0x0F'
p335
sS'file'
p336
S'ATmegaBOOT_168_atmega1280.hex'
p337
sS'path'
p338
S'atmega'
p339
sS'unlock_bits'
p340
S'0x3F'
p341
ssS'upload'
p342
(dp343
S'protocol'
p344
S'arduino'
p345
sS'maximum_size'
p346
S'126976'
p347
sS'speed'
p348
S'57600'
p349
ssS'build'
p350
(dp351
S'core'
p352
S'arduino'
p353
sS'mcu'
p354
S'atmega1280'
p355
sS'f_cpu'
p356
S'16000000L'
p357
sS'variant'
p358
S'mega'
p359
ssS'name'
p360
S'Arduino Mega (ATmega1280)'
p361
saa(lp362
S'leonardo'
p363
a(dp364
S'bootloader'
p365
(dp366
S'extended_fuses'
p367
S'0xcb'
p368
sS'high_fuses'
p369
S'0xd8'
p370
sS'low_fuses'
p371
S'0xff'
p372
sS'lock_bits'
p373
S'0x2F'
p374
sS'file'
p375
S'Caterina-Leonardo.hex'
p376
sS'path'
p377
S'caterina'
p378
sS'unlock_bits'
p379
S'0x3F'
p380
ssS'upload'
p381
(dp382
S'protocol'
p383
S'avr109'
p384
sS'maximum_size'
p385
S'28672'
p386
sS'speed'
p387
S'57600'
p388
sS'disable_flushing'
p389
S'true'
p390
ssS'build'
p391
(dp392
S'core'
p393
S'arduino'
p394
sS'f_cpu'
p395
S'16000000L'
p396
sS'vid'
p397
S'0x2341'
p398
sS'pid'
p399
S'0x8036'
p400
sS'variant'
p401
S'leonardo'
p402
sS'mcu'
p403
S'atmega32u4'
p404
ssS'name'
p405
S'Arduino Leonardo'
p406
saa(lp407
S'esplora'
p408
a(dp409
S'bootloader'
p410
(dp411
S'extended_fuses'
p412
S'0xcb'
p413
sS'high_fuses'
p414
S'0xd8'
p415
sS'low_fuses'
p416
S'0xff'
p417
sS'lock_bits'
p418
S'0x2F'
p419
sS'file'
p420
S'Caterina-Esplora.hex'
p421
sS'path'
p422
S'caterina'
p423
sS'unlock_bits'
p424
S'0x3F'
p425
ssS'upload'
p426
(dp427
S'protocol'
p428
S'avr109'
p429
sS'maximum_size'
p430
S'28672'
p431
sS'speed'
p432
S'57600'
p433
sS'disable_flushing'
p434
S'true'
p435
ssS'build'
p436
(dp437
S'core'
p438
S'arduino'
p439
sS'f_cpu'
p440
S'16000000L'
p441
sS'vid'
p442
S'0x2341'
p443
sS'pid'
p444
S'0x803C'
p445
sS'variant'
p446
S'leonardo'
p447
sS'mcu'
p448
S'atmega32u4'
p449
ssS'name'
p450
S'Arduino Esplora'
p451
saa(lp452
S'micro'
p453
a(dp454
S'bootloader'
p455
(dp456
S'extended_fuses'
p457
S'0xcb'
p458
sS'high_fuses'
p459
S'0xd8'
p460
sS'low_fuses'
p461
S'0xff'
p462
sS'lock_bits'
p463
S'0x2F'
p464
sS'file'
p465
S'Caterina-Micro.hex'
p466
sS'path'
p467
S'caterina'
p468
sS'unlock_bits'
p469
S'0x3F'
p470
ssS'upload'
p471
(dp472
S'protocol'
p473
S'avr109'
p474
sS'maximum_size'
p475
S'28672'
p476
sS'speed'
p477
S'57600'
p478
sS'disable_flushing'
p479
S'true'
p480
ssS'build'
p481
(dp482
S'core'
p483
S'arduino'
p484
sS'f_cpu'
p485
S'16000000L'
p486
sS'vid'
p487
S'0x2341'
p488
sS'pid'
p489
S'0x8037'
p490
sS'variant'
p491
S'micro'
p492
sS'mcu'
p493
S'atmega32u4'
p494
ssS'name'
p495
S'Arduino Micro'
p496
saa(lp497
S'mini328'
p498
a(dp499
S'bootloader'
p500
(dp501
S'extended_fuses'
p502
S'0x05'
p503
sS'high_fuses'
p504
S'0xd8'
p505
sS'low_fuses'
p506
S'0xff'
p507
sS'lock_bits'
p508
S'0x0F'
p509
sS'file'
p510
S'optiboot_atmega328-Mini.hex'
p511
sS'path'
p512
S'optiboot'
p513
sS'unlock_bits'
p514
S'0x3F'
p515
ssS'upload'
p516
(dp517
S'protocol'
p518
S'arduino'
p519
sS'maximum_size'
p520
S'28672'
p521
sS'speed'
p522
S'115200'
p523
ssS'build'
p524
(dp525
S'core'
p526
S'arduino'
p527
sS'mcu'
p528
S'atmega328p'
p529
sS'f_cpu'
p530
S'16000000L'
p531
sS'variant'
p532
S'eightanaloginputs'
p533
ssS'name'
p534
S'Arduino Mini w/ ATmega328'
p535
saa(lp536
S'mini'
p537
a(dp538
S'bootloader'
p539
(dp540
S'extended_fuses'
p541
S'0x00'
p542
sS'high_fuses'
p543
S'0xdd'
p544
sS'low_fuses'
p545
S'0xff'
p546
sS'lock_bits'
p547
S'0x0F'
p548
sS'file'
p549
S'ATmegaBOOT_168_ng.hex'
p550
sS'path'
p551
S'atmega'
p552
sS'unlock_bits'
p553
S'0x3F'
p554
ssS'upload'
p555
(dp556
S'protocol'
p557
S'arduino'
p558
sS'maximum_size'
p559
S'14336'
p560
sS'speed'
p561
S'19200'
p562
ssS'build'
p563
(dp564
S'core'
p565
S'arduino'
p566
sS'mcu'
p567
S'atmega168'
p568
sS'f_cpu'
p569
S'16000000L'
p570
sS'variant'
p571
S'eightanaloginputs'
p572
ssS'name'
p573
S'Arduino Mini w/ ATmega168'
p574
saa(lp575
S'ethernet'
p576
a(dp577
S'bootloader'
p578
(dp579
S'extended_fuses'
p580
S'0x05'
p581
sS'high_fuses'
p582
S'0xde'
p583
sS'low_fuses'
p584
S'0xff'
p585
sS'lock_bits'
p586
S'0x0F'
p587
sS'file'
p588
S'optiboot_atmega328.hex'
p589
sS'path'
p590
S'optiboot'
p591
sS'unlock_bits'
p592
S'0x3F'
p593
ssS'upload'
p594
(dp595
S'protocol'
p596
S'arduino'
p597
sS'maximum_size'
p598
S'32256'
p599
sS'speed'
p600
S'115200'
p601
ssS'build'
p602
(dp603
S'variant'
p604
S'standard'
p605
sS'mcu'
p606
S'atmega328p'
p607
sS'f_cpu'
p608
S'16000000L'
p609
sS'core'
p610
S'arduino'
p611
ssS'name'
p612
S'Arduino Ethernet'
p613
saa(lp614
S'fio'
p615
a(dp616
S'bootloader'
p617
(dp618
S'extended_fuses'
p619
S'0x05'
p620
sS'high_fuses'
p621
S'0xDA'
p622
sS'low_fuses'
p623
S'0xFF'
p624
sS'lock_bits'
p625
S'0x0F'
p626
sS'file'
p627
S'ATmegaBOOT_168_atmega328_pro_8MHz.hex'
p628
sS'path'
p629
S'arduino:atmega'
p630
sS'unlock_bits'
p631
S'0x3F'
p632
ssS'upload'
p633
(dp634
S'protocol'
p635
S'arduino'
p636
sS'maximum_size'
p637
S'30720'
p638
sS'speed'
p639
S'57600'
p640
ssS'build'
p641
(dp642
S'core'
p643
S'arduino'
p644
sS'mcu'
p645
S'atmega328p'
p646
sS'f_cpu'
p647
S'8000000L'
p648
sS'variant'
p649
S'eightanaloginputs'
p650
ssS'name'
p651
S'Arduino Fio'
p652
saa(lp653
S'bt328'
p654
a(dp655
S'bootloader'
p656
(dp657
S'extended_fuses'
p658
S'0x05'
p659
sS'high_fuses'
p660
S'0xd8'
p661
sS'low_fuses'
p662
S'0xff'
p663
sS'lock_bits'
p664
S'0x0F'
p665
sS'file'
p666
S'ATmegaBOOT_168_atmega328_bt.hex'
p667
sS'path'
p668
S'bt'
p669
sS'unlock_bits'
p670
S'0x3F'
p671
ssS'upload'
p672
(dp673
S'protocol'
p674
S'arduino'
p675
sS'maximum_size'
p676
S'28672'
p677
sS'speed'
p678
S'19200'
p679
sS'disable_flushing'
p680
S'true'
p681
ssS'build'
p682
(dp683
S'core'
p684
S'arduino'
p685
sS'mcu'
p686
S'atmega328p'
p687
sS'f_cpu'
p688
S'16000000L'
p689
sS'variant'
p690
S'eightanaloginputs'
p691
ssS'name'
p692
S'Arduino BT w/ ATmega328'
p693
saa(lp694
S'bt'
p695
a(dp696
S'bootloader'
p697
(dp698
S'extended_fuses'
p699
S'0x00'
p700
sS'high_fuses'
p701
S'0xdd'
p702
sS'low_fuses'
p703
S'0xff'
p704
sS'lock_bits'
p705
S'0x0F'
p706
sS'file'
p707
S'ATmegaBOOT_168.hex'
p708
sS'path'
p709
S'bt'
p710
sS'unlock_bits'
p711
S'0x3F'
p712
ssS'upload'
p713
(dp714
S'protocol'
p715
S'arduino'
p716
sS'maximum_size'
p717
S'14336'
p718
sS'speed'
p719
S'19200'
p720
sS'disable_flushing'
p721
S'true'
p722
ssS'build'
p723
(dp724
S'core'
p725
S'arduino'
p726
sS'mcu'
p727
S'atmega168'
p728
sS'f_cpu'
p729
S'16000000L'
p730
sS'variant'
p731
S'eightanaloginputs'
p732
ssS'name'
p733
S'Arduino BT w/ ATmega168'
p734
saa(lp735
S'LilyPadUSB'
p736
a(dp737
S'bootloader'
p738
(dp739
S'extended_fuses'
p740
S'0xce'
p741
sS'high_fuses'
p742
S'0xd8'
p743
sS'low_fuses'
p744
S'0xff'
p745
sS'lock_bits'
p746
S'0x2F'
p747
sS'file'
p748
S'Caterina-LilyPadUSB.hex'
p749
sS'path'
p750
S'caterina-LilyPadUSB'
p751
sS'unlock_bits'
p752
S'0x3F'
p753
ssS'upload'
p754
(dp755
S'protocol'
p756
S'avr109'
p757
sS'maximum_size'
p758
S'28672'
p759
sS'speed'
p760
S'57600'
p761
sS'disable_flushing'
p762
S'true'
p763
ssS'build'
p764
(dp765
S'core'
p766
S'arduino'
p767
sS'f_cpu'
p768
S'8000000L'
p769
sS'vid'
p770
S'0x1B4F'
p771
sS'pid'
p772
S'0x9208'
p773
sS'variant'
p774
S'leonardo'
p775
sS'mcu'
p776
S'atmega32u4'
p777
ssS'name'
p778
S'LilyPad Arduino USB'
p779
saa(lp780
S'lilypad328'
p781
a(dp782
S'bootloader'
p783
(dp784
S'extended_fuses'
p785
S'0x05'
p786
sS'high_fuses'
p787
S'0xDA'
p788
sS'low_fuses'
p789
S'0xFF'
p790
sS'lock_bits'
p791
S'0x0F'
p792
sS'file'
p793
S'ATmegaBOOT_168_atmega328_pro_8MHz.hex'
p794
sS'path'
p795
S'atmega'
p796
sS'unlock_bits'
p797
S'0x3F'
p798
ssS'upload'
p799
(dp800
S'protocol'
p801
S'arduino'
p802
sS'maximum_size'
p803
S'30720'
p804
sS'speed'
p805
S'57600'
p806
ssS'build'
p807
(dp808
S'core'
p809
S'arduino'
p810
sS'mcu'
p811
S'atmega328p'
p812
sS'f_cpu'
p813
S'8000000L'
p814
sS'variant'
p815
S'standard'
p816
ssS'name'
p817
S'LilyPad Arduino w/ ATmega328'
p818
saa(lp819
S'lilypad'
p820
a(dp821
S'bootloader'
p822
(dp823
S'extended_fuses'
p824
S'0x00'
p825
sS'high_fuses'
p826
S'0xdd'
p827
sS'low_fuses'
p828
S'0xe2'
p829
sS'lock_bits'
p830
S'0x0F'
p831
sS'file'
p832
S'LilyPadBOOT_168.hex'
p833
sS'path'
p834
S'lilypad'
p835
sS'unlock_bits'
p836
S'0x3F'
p837
ssS'upload'
p838
(dp839
S'protocol'
p840
S'arduino'
p841
sS'maximum_size'
p842
S'14336'
p843
sS'speed'
p844
S'19200'
p845
ssS'build'
p846
(dp847
S'core'
p848
S'arduino'
p849
sS'mcu'
p850
S'atmega168'
p851
sS'f_cpu'
p852
S'8000000L'
p853
sS'variant'
p854
S'standard'
p855
ssS'name'
p856
S'LilyPad Arduino w/ ATmega168'
p857
saa(lp858
S'pro5v328'
p859
a(dp860
S'bootloader'
p861
(dp862
S'extended_fuses'
p863
S'0x05'
p864
sS'high_fuses'
p865
S'0xDA'
p866
sS'low_fuses'
p867
S'0xFF'
p868
sS'lock_bits'
p869
S'0x0F'
p870
sS'file'
p871
S'ATmegaBOOT_168_atmega328.hex'
p872
sS'path'
p873
S'atmega'
p874
sS'unlock_bits'
p875
S'0x3F'
p876
ssS'upload'
p877
(dp878
S'protocol'
p879
S'arduino'
p880
sS'maximum_size'
p881
S'30720'
p882
sS'speed'
p883
S'57600'
p884
ssS'build'
p885
(dp886
S'core'
p887
S'arduino'
p888
sS'mcu'
p889
S'atmega328p'
p890
sS'f_cpu'
p891
S'16000000L'
p892
sS'variant'
p893
S'standard'
p894
ssS'name'
p895
S'Arduino Pro or Pro Mini (5V, 16 MHz) w/ ATmega328'
p896
saa(lp897
S'pro5v'
p898
a(dp899
S'bootloader'
p900
(dp901
S'extended_fuses'
p902
S'0x00'
p903
sS'high_fuses'
p904
S'0xdd'
p905
sS'low_fuses'
p906
S'0xff'
p907
sS'lock_bits'
p908
S'0x0F'
p909
sS'file'
p910
S'ATmegaBOOT_168_diecimila.hex'
p911
sS'path'
p912
S'atmega'
p913
sS'unlock_bits'
p914
S'0x3F'
p915
ssS'upload'
p916
(dp917
S'protocol'
p918
S'arduino'
p919
sS'maximum_size'
p920
S'14336'
p921
sS'speed'
p922
S'19200'
p923
ssS'build'
p924
(dp925
S'core'
p926
S'arduino'
p927
sS'mcu'
p928
S'atmega168'
p929
sS'f_cpu'
p930
S'16000000L'
p931
sS'variant'
p932
S'standard'
p933
ssS'name'
p934
S'Arduino Pro or Pro Mini (5V, 16 MHz) w/ ATmega168'
p935
saa(lp936
S'pro328'
p937
a(dp938
S'bootloader'
p939
(dp940
S'extended_fuses'
p941
S'0x05'
p942
sS'high_fuses'
p943
S'0xDA'
p944
sS'low_fuses'
p945
S'0xFF'
p946
sS'lock_bits'
p947
S'0x0F'
p948
sS'file'
p949
S'ATmegaBOOT_168_atmega328_pro_8MHz.hex'
p950
sS'path'
p951
S'atmega'
p952
sS'unlock_bits'
p953
S'0x3F'
p954
ssS'upload'
p955
(dp956
S'protocol'
p957
S'arduino'
p958
sS'maximum_size'
p959
S'30720'
p960
sS'speed'
p961
S'57600'
p962
ssS'build'
p963
(dp964
S'core'
p965
S'arduino'
p966
sS'mcu'
p967
S'atmega328p'
p968
sS'f_cpu'
p969
S'8000000L'
p970
sS'variant'
p971
S'standard'
p972
ssS'name'
p973
S'Arduino Pro or Pro Mini (3.3V, 8 MHz) w/ ATmega328'
p974
saa(lp975
S'pro'
p976
a(dp977
S'bootloader'
p978
(dp979
S'extended_fuses'
p980
S'0x00'
p981
sS'high_fuses'
p982
S'0xdd'
p983
sS'low_fuses'
p984
S'0xc6'
p985
sS'lock_bits'
p986
S'0x0F'
p987
sS'file'
p988
S'ATmegaBOOT_168_pro_8MHz.hex'
p989
sS'path'
p990
S'atmega'
p991
sS'unlock_bits'
p992
S'0x3F'
p993
ssS'upload'
p994
(dp995
S'protocol'
p996
S'arduino'
p997
sS'maximum_size'
p998
S'14336'
p999
sS'speed'
p1000
S'19200'
p1001
ssS'build'
p1002
(dp1003
S'core'
p1004
S'arduino'
p1005
sS'mcu'
p1006
S'atmega168'
p1007
sS'f_cpu'
p1008
S'8000000L'
p1009
sS'variant'
p1010
S'standard'
p1011
ssS'name'
p1012
S'Arduino Pro or Pro Mini (3.3V, 8 MHz) w/ ATmega168'
p1013
saa(lp1014
S'atmega168'
p1015
a(dp1016
S'bootloader'
p1017
(dp1018
S'extended_fuses'
p1019
S'0x00'
p1020
sS'high_fuses'
p1021
S'0xdd'
p1022
sS'low_fuses'
p1023
S'0xff'
p1024
sS'lock_bits'
p1025
S'0x0F'
p1026
sS'file'
p1027
S'ATmegaBOOT_168_ng.hex'
p1028
sS'path'
p1029
S'atmega'
p1030
sS'unlock_bits'
p1031
S'0x3F'
p1032
ssS'upload'
p1033
(dp1034
S'protocol'
p1035
S'arduino'
p1036
sS'maximum_size'
p1037
S'14336'
p1038
sS'speed'
p1039
S'19200'
p1040
ssS'build'
p1041
(dp1042
S'core'
p1043
S'arduino'
p1044
sS'mcu'
p1045
S'atmega168'
p1046
sS'f_cpu'
p1047
S'16000000L'
p1048
sS'variant'
p1049
S'standard'
p1050
ssS'name'
p1051
S'Arduino NG or older w/ ATmega168'
p1052
saa(lp1053
S'atmega8'
p1054
a(dp1055
S'bootloader'
p1056
(dp1057
S'high_fuses'
p1058
S'0xca'
p1059
sS'low_fuses'
p1060
S'0xdf'
p1061
sS'lock_bits'
p1062
S'0x0F'
p1063
sS'file'
p1064
S'ATmegaBOOT-prod-firmware-2009-11-07.hex'
p1065
sS'path'
p1066
S'atmega8'
p1067
sS'unlock_bits'
p1068
S'0x3F'
p1069
ssS'upload'
p1070
(dp1071
S'protocol'
p1072
S'arduino'
p1073
sS'maximum_size'
p1074
S'7168'
p1075
sS'speed'
p1076
S'19200'
p1077
ssS'build'
p1078
(dp1079
S'core'
p1080
S'arduino'
p1081
sS'mcu'
p1082
S'atmega8'
p1083
sS'f_cpu'
p1084
S'16000000L'
p1085
sS'variant'
p1086
S'standard'
p1087
ssS'name'
p1088
S'Arduino NG or older w/ ATmega8'
p1089
saa(lp1090
S'robotControl'
p1091
a(dp1092
S'bootloader'
p1093
(dp1094
S'extended_fuses'
p1095
S'0xcb'
p1096
sS'high_fuses'
p1097
S'0xd8'
p1098
sS'low_fuses'
p1099
S'0xff'
p1100
sS'lock_bits'
p1101
S'0x2F'
p1102
sS'file'
p1103
S'Caterina-Robot-Control.hex'
p1104
sS'path'
p1105
S'caterina-Arduino_Robot'
p1106
sS'unlock_bits'
p1107
S'0x3F'
p1108
ssS'upload'
p1109
(dp1110
S'protocol'
p1111
S'avr109'
p1112
sS'maximum_size'
p1113
S'28672'
p1114
sS'speed'
p1115
S'57600'
p1116
sS'disable_flushing'
p1117
S'true'
p1118
ssS'build'
p1119
(dp1120
S'core'
p1121
S'robot'
p1122
sS'f_cpu'
p1123
S'16000000L'
p1124
sS'vid'
p1125
S'0x2341'
p1126
sS'pid'
p1127
S'0x8038'
p1128
sS'variant'
p1129
S'robot_control'
p1130
sS'mcu'
p1131
S'atmega32u4'
p1132
ssS'name'
p1133
S'Arduino Robot Control'
p1134
saa(lp1135
S'robotMotor'
p1136
a(dp1137
S'bootloader'
p1138
(dp1139
S'extended_fuses'
p1140
S'0xcb'
p1141
sS'high_fuses'
p1142
S'0xd8'
p1143
sS'low_fuses'
p1144
S'0xff'
p1145
sS'lock_bits'
p1146
S'0x2F'
p1147
sS'file'
p1148
S'Caterina-Robot-Motor.hex'
p1149
sS'path'
p1150
S'caterina-Arduino_Robot'
p1151
sS'unlock_bits'
p1152
S'0x3F'
p1153
ssS'upload'
p1154
(dp1155
S'protocol'
p1156
S'avr109'
p1157
sS'maximum_size'
p1158
S'28672'
p1159
sS'speed'
p1160
S'57600'
p1161
sS'disable_flushing'
p1162
S'true'
p1163
ssS'build'
p1164
(dp1165
S'core'
p1166
S'robot'
p1167
sS'f_cpu'
p1168
S'16000000L'
p1169
sS'vid'
p1170
S'0x2341'
p1171
sS'pid'
p1172
S'0x8039'
p1173
sS'variant'
p1174
S'robot_motor'
p1175
sS'mcu'
p1176
S'atmega32u4'
p1177
ssS'name'
p1178
S'Arduino Robot Motor'
p1179
saatp1180
Rp1181
(dp1182
S'default'
p1183
S'uno'
p1184
sbtp1185
a(S'ldflags'
p1186
g2
(g3
g4
(lp1187
g6
aS'-Wl,-Os'
p1188
aS'-Wl,--gc-sections'
p1189
atp1190
Rp1191
tp1192
a.